; Function Attrs: mustprogress nounwind uwtable
define hidden void @_ZN8G1RemSet23prepare_region_for_scanEP12G1HeapRegion(ptr nocapture noundef nonnull readonly align 8 dereferenceable(48) %0, ptr noundef nonnull %1) local_unnamed_addr #1 align 2 {
  %3 = getelementptr inbounds i8, ptr %1, i64 48
  %4 = load i32, ptr %3, align 8
  tail call void @_ZN12G1HeapRegion23prepare_remset_for_scanEv(ptr noundef nonnull align 8 dereferenceable(136) %1) #18
  %5 = load ptr, ptr @_ZN8Universe14_collectedHeapE, align 8
  %6 = load i32, ptr %3, align 8
  %7 = zext i32 %6 to i64
  %8 = getelementptr inbounds i8, ptr %5, i64 1448
  %9 = load ptr, ptr %8, align 8
  %10 = getelementptr inbounds %struct.G1HeapRegionAttr, ptr %9, i64 %7
  %.sroa.0.0.copyload.i.i.i.i = load i24, ptr %10, align 1
  %11 = and i24 %.sroa.0.0.copyload.i.i.i.i, 32768
  %12 = icmp eq i24 %11, 0
  br i1 %12, label %25, label %13

13:                                               ; preds = %2
  %14 = getelementptr inbounds i8, ptr %1, i64 52
  %15 = load volatile i32, ptr %14, align 4
  %16 = and i32 %15, 12
  %.not = icmp eq i32 %16, 0
  br i1 %.not, label %25, label %17

17:                                               ; preds = %13
  %18 = load ptr, ptr %0, align 8
  %19 = getelementptr inbounds i8, ptr %1, i64 16
  %20 = load volatile ptr, ptr %19, align 8
  %21 = getelementptr inbounds i8, ptr %18, i64 64
  %22 = load ptr, ptr %21, align 8
  %23 = zext i32 %4 to i64
  %24 = getelementptr inbounds ptr, ptr %22, i64 %23
  store ptr %20, ptr %24, align 8
  br label %25

25:                                               ; preds = %13, %2, %17
  ret void
}